; Function Attrs: nounwind uwtable
define internal fastcc void @col_set_utc_ymd_time(ptr noundef %0, ptr noundef readonly captures(none) %1, i32 noundef %2) unnamed_addr #0 {
  %4 = getelementptr inbounds nuw i8, ptr %1, i64 16
  %5 = load ptr, ptr %4, align 8
  %6 = sext i32 %2 to i64
  %7 = getelementptr %struct.col_item_t, ptr %5, i64 %6, i32 8
  %8 = load ptr, ptr %7, align 8
  %9 = load ptr, ptr @col_decimal_point, align 8
  %10 = getelementptr inbounds nuw i8, ptr %0, i64 50
  %11 = load i16, ptr %10, align 2
  %12 = and i16 %11, 128
  %.not.i = icmp eq i16 %12, 0
  br i1 %.not.i, label %13, label %14

13:                                               ; preds = %3
  store i8 0, ptr %8, align 1
  br label %set_abs_ymd_time.exit

14:                                               ; preds = %3
  %15 = getelementptr inbounds nuw i8, ptr %0, i64 56
  %16 = tail call i32 @timestamp_get_precision() #16
  %17 = icmp eq i32 %16, -1
  br i1 %17, label %18, label %23

18:                                               ; preds = %14
  %19 = load i16, ptr %10, align 2
  %20 = lshr i16 %19, 10
  %21 = and i16 %20, 15
  %22 = zext nneg i16 %21 to i32
  br label %get_frame_timestamp_precision.exit.i

23:                                               ; preds = %14
  %24 = icmp slt i32 %16, 0
  br i1 %24, label %25, label %get_frame_timestamp_precision.exit.i

25:                                               ; preds = %23
  tail call void (ptr, i32, ptr, i64, ptr, ptr, ...) @ws_log_fatal_full(ptr noundef nonnull @.str.1, i32 noundef 7, ptr noundef nonnull @.str.7, i64 noundef 984, ptr noundef nonnull @__func__.get_frame_timestamp_precision, ptr noundef nonnull @.str.9) #19
  unreachable

get_frame_timestamp_precision.exit.i:             ; preds = %23, %18
  %.0.i.i = phi i32 [ %22, %18 ], [ %16, %23 ]
  %spec.store.select.i.i = tail call range(i32 0, 10) i32 @llvm.umin.i32(i32 %.0.i.i, i32 9)
  tail call void @format_nstime_as_iso8601(ptr noundef %8, i64 noundef 2048, ptr noundef nonnull %15, ptr noundef %9, i1 noundef zeroext false, i32 noundef %spec.store.select.i.i) #16
  br label %set_abs_ymd_time.exit

set_abs_ymd_time.exit:                            ; preds = %13, %get_frame_timestamp_precision.exit.i
  %26 = getelementptr inbounds nuw i8, ptr %1, i64 40
  %27 = load ptr, ptr %26, align 8
  %28 = getelementptr ptr, ptr %27, i64 %6
  store ptr @.str.31, ptr %28, align 8
  %29 = getelementptr inbounds nuw i8, ptr %1, i64 48
  %30 = load ptr, ptr %29, align 8
  %31 = getelementptr ptr, ptr %30, i64 %6
  %32 = load ptr, ptr %31, align 8
  %33 = load ptr, ptr %4, align 8
  %34 = getelementptr %struct.col_item_t, ptr %33, i64 %6, i32 8
  %35 = load ptr, ptr %34, align 8
  %36 = tail call i64 @g_strlcpy(ptr noundef %32, ptr noundef %35, i64 noundef 2048) #16
  %37 = load ptr, ptr %4, align 8
  %38 = getelementptr %struct.col_item_t, ptr %37, i64 %6
  %39 = getelementptr inbounds nuw i8, ptr %38, i64 64
  %40 = load ptr, ptr %39, align 8
  %41 = getelementptr inbounds nuw i8, ptr %38, i64 56
  store ptr %40, ptr %41, align 8
  ret void
}